target datalayout = "e-m:e-p270:32:32-p271:32:32-p272:64:64-i64:64-i128:128-f80:128-n8:16:32:64-S128"
target triple = "x86_64-pc-linux-gnu"

%struct.asn1_string_st = type { i32, i32, ptr, i64 }

@.str = private unnamed_addr constant [123 x i8] c"generated/home/dtcxzyw/WorkSpace/Projects/compilers/llvm-opt-benchmark/bench/libquic/libquic/boringssl/crypto/asn1/a_int.c\00", align 1

; Function Attrs: nounwind uwtable
define hidden ptr @c2i_ASN1_INTEGER(ptr noundef %0, ptr noundef %1, i64 noundef %2) #0 {
  %4 = alloca ptr, align 8
  %5 = alloca ptr, align 8
  %6 = alloca ptr, align 8
  %7 = alloca i64, align 8
  %8 = alloca ptr, align 8
  %9 = alloca ptr, align 8
  %10 = alloca ptr, align 8
  %11 = alloca ptr, align 8
  %12 = alloca ptr, align 8
  %13 = alloca i32, align 4
  %14 = alloca i32, align 4
  store ptr %0, ptr %5, align 8, !tbaa !27
  store ptr %1, ptr %6, align 8, !tbaa !17
  store i64 %2, ptr %7, align 8, !tbaa !29
  call void @llvm.lifetime.start.p0(i64 8, ptr %8) #8
  store ptr null, ptr %8, align 8, !tbaa !6
  call void @llvm.lifetime.start.p0(i64 8, ptr %9) #8
  call void @llvm.lifetime.start.p0(i64 8, ptr %10) #8
  call void @llvm.lifetime.start.p0(i64 8, ptr %11) #8
  call void @llvm.lifetime.start.p0(i64 8, ptr %12) #8
  call void @llvm.lifetime.start.p0(i64 4, ptr %13) #8
  %15 = load ptr, ptr %5, align 8, !tbaa !27
  %16 = icmp eq ptr %15, null
  br i1 %16, label %21, label %17

17:                                               ; preds = %3
  %18 = load ptr, ptr %5, align 8, !tbaa !27
  %19 = load ptr, ptr %18, align 8, !tbaa !6
  %20 = icmp eq ptr %19, null
  br i1 %20, label %21, label %28

21:                                               ; preds = %17, %3
  %22 = call ptr @ASN1_STRING_type_new(i32 noundef 2)
  store ptr %22, ptr %8, align 8, !tbaa !6
  %23 = icmp eq ptr %22, null
  br i1 %23, label %24, label %25

24:                                               ; preds = %21
  store ptr null, ptr %4, align 8
  store i32 1, ptr %14, align 4
  br label %204

25:                                               ; preds = %21
  %26 = load ptr, ptr %8, align 8, !tbaa !6
  %27 = getelementptr inbounds nuw %struct.asn1_string_st, ptr %26, i32 0, i32 1
  store i32 2, ptr %27, align 4, !tbaa !11
  br label %31

28:                                               ; preds = %17
  %29 = load ptr, ptr %5, align 8, !tbaa !27
  %30 = load ptr, ptr %29, align 8, !tbaa !6
  store ptr %30, ptr %8, align 8, !tbaa !6
  br label %31

31:                                               ; preds = %28, %25
  %32 = load ptr, ptr %6, align 8, !tbaa !17
  %33 = load ptr, ptr %32, align 8, !tbaa !24
  store ptr %33, ptr %9, align 8, !tbaa !24
  %34 = load ptr, ptr %9, align 8, !tbaa !24
  %35 = load i64, ptr %7, align 8, !tbaa !29
  %36 = getelementptr inbounds i8, ptr %34, i64 %35
  store ptr %36, ptr %10, align 8, !tbaa !24
  %37 = load i64, ptr %7, align 8, !tbaa !29
  %38 = trunc i64 %37 to i32
  %39 = add nsw i32 %38, 1
  %40 = sext i32 %39 to i64
  %41 = call noalias ptr @malloc(i64 noundef %40) #9
  store ptr %41, ptr %12, align 8, !tbaa !24
  %42 = load ptr, ptr %12, align 8, !tbaa !24
  %43 = icmp eq ptr %42, null
  br i1 %43, label %44, label %45

44:                                               ; preds = %31
  store i32 65, ptr %13, align 4, !tbaa !16
  br label %189

45:                                               ; preds = %31
  %46 = load ptr, ptr %12, align 8, !tbaa !24
  store ptr %46, ptr %11, align 8, !tbaa !24
  %47 = load i64, ptr %7, align 8, !tbaa !29
  %48 = icmp ne i64 %47, 0
  br i1 %48, label %52, label %49

49:                                               ; preds = %45
  %50 = load ptr, ptr %8, align 8, !tbaa !6
  %51 = getelementptr inbounds nuw %struct.asn1_string_st, ptr %50, i32 0, i32 1
  store i32 2, ptr %51, align 4, !tbaa !11
  br label %163

52:                                               ; preds = %45
  %53 = load ptr, ptr %9, align 8, !tbaa !24
  %54 = load i8, ptr %53, align 1, !tbaa !19
  %55 = zext i8 %54 to i32
  %56 = and i32 %55, 128
  %57 = icmp ne i32 %56, 0
  br i1 %57, label %58, label %141

58:                                               ; preds = %52
  %59 = load ptr, ptr %8, align 8, !tbaa !6
  %60 = getelementptr inbounds nuw %struct.asn1_string_st, ptr %59, i32 0, i32 1
  store i32 258, ptr %60, align 4, !tbaa !11
  %61 = load ptr, ptr %9, align 8, !tbaa !24
  %62 = load i8, ptr %61, align 1, !tbaa !19
  %63 = zext i8 %62 to i32
  %64 = icmp eq i32 %63, 255
  br i1 %64, label %65, label %73

65:                                               ; preds = %58
  %66 = load i64, ptr %7, align 8, !tbaa !29
  %67 = icmp ne i64 %66, 1
  br i1 %67, label %68, label %73

68:                                               ; preds = %65
  %69 = load ptr, ptr %9, align 8, !tbaa !24
  %70 = getelementptr inbounds nuw i8, ptr %69, i32 1
  store ptr %70, ptr %9, align 8, !tbaa !24
  %71 = load i64, ptr %7, align 8, !tbaa !29
  %72 = add nsw i64 %71, -1
  store i64 %72, ptr %7, align 8, !tbaa !29
  br label %73

73:                                               ; preds = %68, %65, %58
  %74 = load i64, ptr %7, align 8, !tbaa !29
  %75 = trunc i64 %74 to i32
  store i32 %75, ptr %13, align 4, !tbaa !16
  %76 = load i32, ptr %13, align 4, !tbaa !16
  %77 = sub nsw i32 %76, 1
  %78 = load ptr, ptr %9, align 8, !tbaa !24
  %79 = sext i32 %77 to i64
  %80 = getelementptr inbounds i8, ptr %78, i64 %79
  store ptr %80, ptr %9, align 8, !tbaa !24
  %81 = load i32, ptr %13, align 4, !tbaa !16
  %82 = sub nsw i32 %81, 1
  %83 = load ptr, ptr %11, align 8, !tbaa !24
  %84 = sext i32 %82 to i64
  %85 = getelementptr inbounds i8, ptr %83, i64 %84
  store ptr %85, ptr %11, align 8, !tbaa !24
  br label %86

86:                                               ; preds = %95, %73
  %87 = load ptr, ptr %9, align 8, !tbaa !24
  %88 = load i8, ptr %87, align 1, !tbaa !19
  %89 = icmp ne i8 %88, 0
  br i1 %89, label %93, label %90

90:                                               ; preds = %86
  %91 = load i32, ptr %13, align 4, !tbaa !16
  %92 = icmp ne i32 %91, 0
  br label %93

93:                                               ; preds = %90, %86
  %94 = phi i1 [ false, %86 ], [ %92, %90 ]
  br i1 %94, label %95, label %102

95:                                               ; preds = %93
  %96 = load ptr, ptr %11, align 8, !tbaa !24
  %97 = getelementptr inbounds i8, ptr %96, i32 -1
  store ptr %97, ptr %11, align 8, !tbaa !24
  store i8 0, ptr %96, align 1, !tbaa !19
  %98 = load i32, ptr %13, align 4, !tbaa !16
  %99 = add nsw i32 %98, -1
  store i32 %99, ptr %13, align 4, !tbaa !16
  %100 = load ptr, ptr %9, align 8, !tbaa !24
  %101 = getelementptr inbounds i8, ptr %100, i32 -1
  store ptr %101, ptr %9, align 8, !tbaa !24
  br label %86, !llvm.loop !30

102:                                              ; preds = %93
  %103 = load i32, ptr %13, align 4, !tbaa !16
  %104 = icmp ne i32 %103, 0
  br i1 %104, label %112, label %105

105:                                              ; preds = %102
  %106 = load ptr, ptr %12, align 8, !tbaa !24
  store i8 1, ptr %106, align 1, !tbaa !19
  %107 = load ptr, ptr %12, align 8, !tbaa !24
  %108 = load i64, ptr %7, align 8, !tbaa !29
  %109 = getelementptr inbounds i8, ptr %107, i64 %108
  store i8 0, ptr %109, align 1, !tbaa !19
  %110 = load i64, ptr %7, align 8, !tbaa !29
  %111 = add nsw i64 %110, 1
  store i64 %111, ptr %7, align 8, !tbaa !29
  br label %140

112:                                              ; preds = %102
  %113 = load ptr, ptr %9, align 8, !tbaa !24
  %114 = getelementptr inbounds i8, ptr %113, i32 -1
  store ptr %114, ptr %9, align 8, !tbaa !24
  %115 = load i8, ptr %113, align 1, !tbaa !19
  %116 = zext i8 %115 to i32
  %117 = xor i32 %116, 255
  %118 = add nsw i32 %117, 1
  %119 = trunc i32 %118 to i8
  %120 = load ptr, ptr %11, align 8, !tbaa !24
  %121 = getelementptr inbounds i8, ptr %120, i32 -1
  store ptr %121, ptr %11, align 8, !tbaa !24
  store i8 %119, ptr %120, align 1, !tbaa !19
  %122 = load i32, ptr %13, align 4, !tbaa !16
  %123 = add nsw i32 %122, -1
  store i32 %123, ptr %13, align 4, !tbaa !16
  br label %124

124:                                              ; preds = %136, %112
  %125 = load i32, ptr %13, align 4, !tbaa !16
  %126 = icmp sgt i32 %125, 0
  br i1 %126, label %127, label %139

127:                                              ; preds = %124
  %128 = load ptr, ptr %9, align 8, !tbaa !24
  %129 = getelementptr inbounds i8, ptr %128, i32 -1
  store ptr %129, ptr %9, align 8, !tbaa !24
  %130 = load i8, ptr %128, align 1, !tbaa !19
  %131 = zext i8 %130 to i32
  %132 = xor i32 %131, 255
  %133 = trunc i32 %132 to i8
  %134 = load ptr, ptr %11, align 8, !tbaa !24
  %135 = getelementptr inbounds i8, ptr %134, i32 -1
  store ptr %135, ptr %11, align 8, !tbaa !24
  store i8 %133, ptr %134, align 1, !tbaa !19
  br label %136

136:                                              ; preds = %127
  %137 = load i32, ptr %13, align 4, !tbaa !16
  %138 = add nsw i32 %137, -1
  store i32 %138, ptr %13, align 4, !tbaa !16
  br label %124, !llvm.loop !31

139:                                              ; preds = %124
  br label %140

140:                                              ; preds = %139, %105
  br label %162

141:                                              ; preds = %52
  %142 = load ptr, ptr %8, align 8, !tbaa !6
  %143 = getelementptr inbounds nuw %struct.asn1_string_st, ptr %142, i32 0, i32 1
  store i32 2, ptr %143, align 4, !tbaa !11
  %144 = load ptr, ptr %9, align 8, !tbaa !24
  %145 = load i8, ptr %144, align 1, !tbaa !19
  %146 = zext i8 %145 to i32
  %147 = icmp eq i32 %146, 0
  br i1 %147, label %148, label %156

148:                                              ; preds = %141
  %149 = load i64, ptr %7, align 8, !tbaa !29
  %150 = icmp ne i64 %149, 1
  br i1 %150, label %151, label %156

151:                                              ; preds = %148
  %152 = load ptr, ptr %9, align 8, !tbaa !24
  %153 = getelementptr inbounds nuw i8, ptr %152, i32 1
  store ptr %153, ptr %9, align 8, !tbaa !24
  %154 = load i64, ptr %7, align 8, !tbaa !29
  %155 = add nsw i64 %154, -1
  store i64 %155, ptr %7, align 8, !tbaa !29
  br label %156

156:                                              ; preds = %151, %148, %141
  %157 = load ptr, ptr %12, align 8, !tbaa !24
  %158 = load ptr, ptr %9, align 8, !tbaa !24
  %159 = load i64, ptr %7, align 8, !tbaa !29
  %160 = trunc i64 %159 to i32
  %161 = sext i32 %160 to i64
  call void @llvm.memcpy.p0.p0.i64(ptr align 1 %157, ptr align 1 %158, i64 %161, i1 false)
  br label %162

162:                                              ; preds = %156, %140
  br label %163

163:                                              ; preds = %162, %49
  %164 = load ptr, ptr %8, align 8, !tbaa !6
  %165 = getelementptr inbounds nuw %struct.asn1_string_st, ptr %164, i32 0, i32 2
  %166 = load ptr, ptr %165, align 8, !tbaa !21
  %167 = icmp ne ptr %166, null
  br i1 %167, label %168, label %172

168:                                              ; preds = %163
  %169 = load ptr, ptr %8, align 8, !tbaa !6
  %170 = getelementptr inbounds nuw %struct.asn1_string_st, ptr %169, i32 0, i32 2
  %171 = load ptr, ptr %170, align 8, !tbaa !21
  call void @free(ptr noundef %171) #8
  br label %172

172:                                              ; preds = %168, %163
  %173 = load ptr, ptr %12, align 8, !tbaa !24
  %174 = load ptr, ptr %8, align 8, !tbaa !6
  %175 = getelementptr inbounds nuw %struct.asn1_string_st, ptr %174, i32 0, i32 2
  store ptr %173, ptr %175, align 8, !tbaa !21
  %176 = load i64, ptr %7, align 8, !tbaa !29
  %177 = trunc i64 %176 to i32
  %178 = load ptr, ptr %8, align 8, !tbaa !6
  %179 = getelementptr inbounds nuw %struct.asn1_string_st, ptr %178, i32 0, i32 0
  store i32 %177, ptr %179, align 8, !tbaa !20
  %180 = load ptr, ptr %5, align 8, !tbaa !27
  %181 = icmp ne ptr %180, null
  br i1 %181, label %182, label %185

182:                                              ; preds = %172
  %183 = load ptr, ptr %8, align 8, !tbaa !6
  %184 = load ptr, ptr %5, align 8, !tbaa !27
  store ptr %183, ptr %184, align 8, !tbaa !6
  br label %185

185:                                              ; preds = %182, %172
  %186 = load ptr, ptr %10, align 8, !tbaa !24
  %187 = load ptr, ptr %6, align 8, !tbaa !17
  store ptr %186, ptr %187, align 8, !tbaa !24
  %188 = load ptr, ptr %8, align 8, !tbaa !6
  store ptr %188, ptr %4, align 8
  store i32 1, ptr %14, align 4
  br label %204

189:                                              ; preds = %44
  %190 = load i32, ptr %13, align 4, !tbaa !16
  call void @ERR_put_error(i32 noundef 12, i32 noundef 0, i32 noundef %190, ptr noundef @.str, i32 noundef 269)
  %191 = load ptr, ptr %8, align 8, !tbaa !6
  %192 = icmp ne ptr %191, null
  br i1 %192, label %193, label %203

193:                                              ; preds = %189
  %194 = load ptr, ptr %5, align 8, !tbaa !27
  %195 = icmp eq ptr %194, null
  br i1 %195, label %201, label %196

196:                                              ; preds = %193
  %197 = load ptr, ptr %5, align 8, !tbaa !27
  %198 = load ptr, ptr %197, align 8, !tbaa !6
  %199 = load ptr, ptr %8, align 8, !tbaa !6
  %200 = icmp ne ptr %198, %199
  br i1 %200, label %201, label %203

201:                                              ; preds = %196, %193
  %202 = load ptr, ptr %8, align 8, !tbaa !6
  call void @ASN1_STRING_free(ptr noundef %202)
  br label %203

203:                                              ; preds = %201, %196, %189
  store ptr null, ptr %4, align 8
  store i32 1, ptr %14, align 4
  br label %204

204:                                              ; preds = %203, %185, %24
  call void @llvm.lifetime.end.p0(i64 4, ptr %13) #8
  call void @llvm.lifetime.end.p0(i64 8, ptr %12) #8
  call void @llvm.lifetime.end.p0(i64 8, ptr %11) #8
  call void @llvm.lifetime.end.p0(i64 8, ptr %10) #8
  call void @llvm.lifetime.end.p0(i64 8, ptr %9) #8
  call void @llvm.lifetime.end.p0(i64 8, ptr %8) #8
  %205 = load ptr, ptr %4, align 8
  ret ptr %205
}