; Function Attrs: nounwind uwtable
define hidden ptr @c2i_ASN1_INTEGER(ptr noundef captures(address_is_null) %0, ptr noundef captures(none) %1, i64 noundef %2) local_unnamed_addr #0 {
  %4 = icmp eq ptr %0, null
  br i1 %4, label %8, label %5

5:                                                ; preds = %3
  %6 = load ptr, ptr %0, align 8, !tbaa !22
  %7 = icmp eq ptr %6, null
  br i1 %7, label %8, label %13

8:                                                ; preds = %5, %3
  %9 = tail call ptr @ASN1_STRING_type_new(i32 noundef 2) #10
  %10 = icmp eq ptr %9, null
  br i1 %10, label %70, label %11

11:                                               ; preds = %8
  %12 = getelementptr inbounds nuw i8, ptr %9, i64 4
  store i32 2, ptr %12, align 4, !tbaa !6
  br label %13

13:                                               ; preds = %5, %11
  %.077 = phi ptr [ %9, %11 ], [ %6, %5 ]
  %14 = load ptr, ptr %1, align 8, !tbaa !19
  %15 = getelementptr inbounds i8, ptr %14, i64 %2
  %16 = shl i64 %2, 32
  %sext = add i64 %16, 4294967296
  %17 = ashr exact i64 %sext, 32
  %18 = tail call noalias ptr @malloc(i64 noundef %17) #11
  %19 = icmp eq ptr %18, null
  br i1 %19, label %20, label %21

20:                                               ; preds = %13
  tail call void @ERR_put_error(i32 noundef 12, i32 noundef 0, i32 noundef 65, ptr noundef nonnull @.str, i32 noundef 269) #10
  br i1 %4, label %69, label %67

21:                                               ; preds = %13
  %.not = icmp eq i64 %2, 0
  br i1 %.not, label %22, label %24

22:                                               ; preds = %21
  %23 = getelementptr inbounds nuw i8, ptr %.077, i64 4
  store i32 2, ptr %23, align 4, !tbaa !6
  br label %.loopexit

24:                                               ; preds = %21
  %25 = load i8, ptr %14, align 1, !tbaa !16
  %.not87 = icmp sgt i8 %25, -1
  %26 = getelementptr inbounds nuw i8, ptr %.077, i64 4
  %27 = icmp ne i64 %2, 1
  br i1 %.not87, label %55, label %28

28:                                               ; preds = %24
  store i32 258, ptr %26, align 4, !tbaa !6
  %29 = load i8, ptr %14, align 1, !tbaa !16
  %30 = icmp eq i8 %29, -1
  %or.cond = and i1 %27, %30
  %.074.idx = zext i1 %or.cond to i64
  %.074 = getelementptr inbounds nuw i8, ptr %14, i64 %.074.idx
  %31 = sext i1 %or.cond to i64
  %.173 = add nsw i64 %2, %31
  %32 = trunc i64 %.173 to i32
  %33 = shl i64 %.173, 32
  %sext89 = add i64 %33, -4294967296
  %34 = ashr exact i64 %sext89, 32
  %35 = getelementptr inbounds i8, ptr %.074, i64 %34
  %36 = getelementptr inbounds i8, ptr %18, i64 %34
  %37 = load i8, ptr %35, align 1, !tbaa !16
  %.not9095 = icmp eq i8 %37, 0
  %38 = icmp ne i32 %32, 0
  %39 = and i1 %.not9095, %38
  br i1 %39, label %.lr.ph, label %._crit_edge

.lr.ph:                                           ; preds = %28, %.lr.ph
  %.098 = phi i32 [ %41, %.lr.ph ], [ %32, %28 ]
  %.07097 = phi ptr [ %40, %.lr.ph ], [ %36, %28 ]
  %.17596 = phi ptr [ %42, %.lr.ph ], [ %35, %28 ]
  %40 = getelementptr inbounds i8, ptr %.07097, i64 -1
  store i8 0, ptr %.07097, align 1, !tbaa !16
  %41 = add nsw i32 %.098, -1
  %42 = getelementptr inbounds i8, ptr %.17596, i64 -1
  %43 = load i8, ptr %42, align 1, !tbaa !16
  %.not90 = icmp eq i8 %43, 0
  %44 = icmp ne i32 %41, 0
  %45 = select i1 %.not90, i1 %44, i1 false
  br i1 %45, label %.lr.ph, label %._crit_edge, !llvm.loop !24

._crit_edge:                                      ; preds = %.lr.ph, %28
  %.175.lcssa = phi ptr [ %35, %28 ], [ %42, %.lr.ph ]
  %.070.lcssa = phi ptr [ %36, %28 ], [ %40, %.lr.ph ]
  %.0.lcssa = phi i32 [ %32, %28 ], [ %41, %.lr.ph ]
  %.lcssa94 = phi i8 [ %37, %28 ], [ %43, %.lr.ph ]
  %.lcssa = phi i1 [ %38, %28 ], [ %44, %.lr.ph ]
  br i1 %.lcssa, label %49, label %46

46:                                               ; preds = %._crit_edge
  store i8 1, ptr %18, align 1, !tbaa !16
  %47 = getelementptr inbounds i8, ptr %18, i64 %.173
  store i8 0, ptr %47, align 1, !tbaa !16
  %48 = add nsw i64 %.173, 1
  br label %.loopexit

49:                                               ; preds = %._crit_edge
  %50 = sub i8 0, %.lcssa94
  store i8 %50, ptr %.070.lcssa, align 1, !tbaa !16
  %51 = icmp sgt i32 %.0.lcssa, 1
  br i1 %51, label %.lr.ph107, label %.loopexit

.lr.ph107:                                        ; preds = %49, %.lr.ph107
  %.1.in105 = phi i32 [ %.1, %.lr.ph107 ], [ %.0.lcssa, %49 ]
  %.070.pn104 = phi ptr [ %.171, %.lr.ph107 ], [ %.070.lcssa, %49 ]
  %.175.pn103 = phi ptr [ %.276, %.lr.ph107 ], [ %.175.lcssa, %49 ]
  %.171 = getelementptr inbounds i8, ptr %.070.pn104, i64 -1
  %.276 = getelementptr inbounds i8, ptr %.175.pn103, i64 -1
  %.1 = add nsw i32 %.1.in105, -1
  %52 = load i8, ptr %.276, align 1, !tbaa !16
  %53 = xor i8 %52, -1
  store i8 %53, ptr %.171, align 1, !tbaa !16
  %54 = icmp samesign ugt i32 %.1.in105, 2
  br i1 %54, label %.lr.ph107, label %.loopexit, !llvm.loop !25

55:                                               ; preds = %24
  store i32 2, ptr %26, align 4, !tbaa !6
  %56 = load i8, ptr %14, align 1, !tbaa !16
  %57 = icmp eq i8 %56, 0
  %or.cond3 = and i1 %27, %57
  %.3.idx = zext i1 %or.cond3 to i64
  %.3 = getelementptr inbounds nuw i8, ptr %14, i64 %.3.idx
  %58 = sext i1 %or.cond3 to i64
  %.2 = add nsw i64 %2, %58
  %sext88 = shl i64 %.2, 32
  %59 = ashr exact i64 %sext88, 32
  tail call void @llvm.memcpy.p0.p0.i64(ptr nonnull align 1 %18, ptr nonnull align 1 %.3, i64 %59, i1 false)
  br label %.loopexit

.loopexit:                                        ; preds = %.lr.ph107, %49, %55, %46, %22
  %.072 = phi i64 [ %48, %46 ], [ %.2, %55 ], [ 0, %22 ], [ %.173, %49 ], [ %.173, %.lr.ph107 ]
  %60 = getelementptr inbounds nuw i8, ptr %.077, i64 8
  %61 = load ptr, ptr %60, align 8, !tbaa !15
  %.not91 = icmp eq ptr %61, null
  br i1 %.not91, label %63, label %62

62:                                               ; preds = %.loopexit
  tail call void @free(ptr noundef nonnull %61) #10
  br label %63

63:                                               ; preds = %62, %.loopexit
  store ptr %18, ptr %60, align 8, !tbaa !15
  %64 = trunc i64 %.072 to i32
  store i32 %64, ptr %.077, align 8, !tbaa !14
  br i1 %4, label %66, label %65

65:                                               ; preds = %63
  store ptr %.077, ptr %0, align 8, !tbaa !22
  br label %66

66:                                               ; preds = %65, %63
  store ptr %15, ptr %1, align 8, !tbaa !19
  br label %70

67:                                               ; preds = %20
  %68 = load ptr, ptr %0, align 8, !tbaa !22
  %.not93 = icmp eq ptr %68, %.077
  br i1 %.not93, label %70, label %69

69:                                               ; preds = %67, %20
  tail call void @ASN1_STRING_free(ptr noundef nonnull %.077) #10
  br label %70

70:                                               ; preds = %67, %69, %8, %66
  %.069 = phi ptr [ %.077, %66 ], [ null, %8 ], [ null, %69 ], [ null, %67 ]
  ret ptr %.069
}